target datalayout = "e-m:e-p270:32:32-p271:32:32-p272:64:64-i64:64-i128:128-f80:128-n8:16:32:64-S128"
target triple = "x86_64-unknown-linux-gnu"

%"class.std::__cxx11::basic_string" = type { %"struct.std::__cxx11::basic_string<char>::_Alloc_hider", i64, %union.anon }
%"struct.std::__cxx11::basic_string<char>::_Alloc_hider" = type { ptr }
%union.anon = type { i64, [8 x i8] }
%"class.cvc5::internal::theory::Valuation" = type { ptr }
%"class.cvc5::context::DefaultCleanUp" = type { i8 }
%"class.cvc5::internal::theory::Theory" = type { %"class.cvc5::internal::EnvObj", %"class.std::__cxx11::basic_string", %"class.cvc5::internal::TimerStat", %"class.cvc5::internal::TimerStat", %"class.cvc5::context::CDList", ptr, %"class.cvc5::internal::theory::Valuation", ptr, %"class.std::unique_ptr", ptr, ptr, ptr, ptr, i32, [4 x i8], %"class.cvc5::context::CDList.5", %"class.cvc5::context::CDO", %"class.cvc5::context::CDO", ptr, ptr }
%"class.cvc5::internal::EnvObj" = type { ptr, ptr }
%"class.cvc5::internal::TimerStat" = type { ptr }
%"class.std::unique_ptr" = type { %"struct.std::__uniq_ptr_data" }
%"struct.std::__uniq_ptr_data" = type { %"class.std::__uniq_ptr_impl" }
%"class.std::__uniq_ptr_impl" = type { %"class.std::tuple" }
%"class.std::tuple" = type { %"struct.std::_Tuple_impl" }
%"struct.std::_Tuple_impl" = type { %"struct.std::_Head_base.4" }
%"struct.std::_Head_base.4" = type { ptr }
%"class.cvc5::context::CDList.5" = type <{ %"class.cvc5::context::ContextObj", %"class.std::vector.6", i64, i8, %"class.cvc5::context::DefaultCleanUp.11", [6 x i8] }>
%"class.cvc5::context::ContextObj" = type { ptr, ptr, ptr, ptr, ptr }
%"class.std::vector.6" = type { %"struct.std::_Vector_base.7" }
%"struct.std::_Vector_base.7" = type { %"struct.std::_Vector_base<cvc5::internal::theory::Assertion, std::allocator<cvc5::internal::theory::Assertion>>::_Vector_impl" }
%"struct.std::_Vector_base<cvc5::internal::theory::Assertion, std::allocator<cvc5::internal::theory::Assertion>>::_Vector_impl" = type { %"struct.std::_Vector_base<cvc5::internal::theory::Assertion, std::allocator<cvc5::internal::theory::Assertion>>::_Vector_impl_data" }
%"struct.std::_Vector_base<cvc5::internal::theory::Assertion, std::allocator<cvc5::internal::theory::Assertion>>::_Vector_impl_data" = type { ptr, ptr, ptr }
%"class.cvc5::context::DefaultCleanUp.11" = type { i8 }
%"class.cvc5::context::CDO" = type <{ %"class.cvc5::context::ContextObj", i32, [4 x i8] }>
%"class.cvc5::context::CDList" = type <{ %"class.cvc5::context::ContextObj", %"class.std::vector", i64, i8, %"class.cvc5::context::DefaultCleanUp", [6 x i8] }>
%"class.std::vector" = type { %"struct.std::_Vector_base" }
%"struct.std::_Vector_base" = type { %"struct.std::_Vector_base<cvc5::internal::NodeTemplate<false>, std::allocator<cvc5::internal::NodeTemplate<false>>>::_Vector_impl" }
%"struct.std::_Vector_base<cvc5::internal::NodeTemplate<false>, std::allocator<cvc5::internal::NodeTemplate<false>>>::_Vector_impl" = type { %"struct.std::_Vector_base<cvc5::internal::NodeTemplate<false>, std::allocator<cvc5::internal::NodeTemplate<false>>>::_Vector_impl_data" }
%"struct.std::_Vector_base<cvc5::internal::NodeTemplate<false>, std::allocator<cvc5::internal::NodeTemplate<false>>>::_Vector_impl_data" = type { ptr, ptr, ptr }
%"class.cvc5::internal::NodeTemplate.665" = type { ptr }

; Function Attrs: mustprogress nounwind uwtable
define linkonce_odr hidden void @_ZN4cvc58internal12NodeTemplateILb0EED2Ev(ptr noundef nonnull align 8 dereferenceable(8) %this) unnamed_addr #6 comdat align 2 {
entry:
  %this.addr = alloca ptr, align 8
  store ptr %this, ptr %this.addr, align 8
  ret void
}

; Function Attrs: mustprogress nounwind uwtable
define linkonce_odr hidden void @_ZN4cvc58internal12NodeTemplateILb0EEC2ERKS2_(ptr noundef nonnull align 8 dereferenceable(8) %this, ptr noundef nonnull align 8 dereferenceable(8) %e) unnamed_addr #6 comdat align 2 {
entry:
  %this.addr = alloca ptr, align 8
  %e.addr = alloca ptr, align 8
  store ptr %this, ptr %this.addr, align 8
  store ptr %e, ptr %e.addr, align 8
  %this1 = load ptr, ptr %this.addr, align 8
  %0 = load ptr, ptr %e.addr, align 8
  %d_nv = getelementptr inbounds %"class.cvc5::internal::NodeTemplate.665", ptr %0, i32 0, i32 0
  %1 = load ptr, ptr %d_nv, align 8
  %d_nv2 = getelementptr inbounds %"class.cvc5::internal::NodeTemplate.665", ptr %this1, i32 0, i32 0
  store ptr %1, ptr %d_nv2, align 8
  ret void
}

; Function Attrs: mustprogress uwtable
define hidden noundef i32 @_ZN4cvc58internal6theory2uf8TheoryUF17getEqualityStatusENS0_12NodeTemplateILb0EEES5_(ptr noundef nonnull align 8 dereferenceable(1736) %this, ptr noundef %a, ptr noundef %b) unnamed_addr #4 align 2 personality ptr @__gxx_personality_v0 {
entry:
  %retval = alloca i32, align 4
  %this.addr = alloca ptr, align 8
  %a.indirect_addr = alloca ptr, align 8
  %b.indirect_addr = alloca ptr, align 8
  %agg.tmp = alloca %"class.cvc5::internal::NodeTemplate.665", align 8
  %agg.tmp2 = alloca %"class.cvc5::internal::NodeTemplate.665", align 8
  %exn.slot = alloca ptr, align 8
  %ehselector.slot = alloca i32, align 4
  %agg.tmp6 = alloca %"class.cvc5::internal::NodeTemplate.665", align 8
  %agg.tmp7 = alloca %"class.cvc5::internal::NodeTemplate.665", align 8
  store ptr %this, ptr %this.addr, align 8
  store ptr %a, ptr %a.indirect_addr, align 8
  store ptr %b, ptr %b.indirect_addr, align 8
  %this1 = load ptr, ptr %this.addr, align 8
  %d_equalityEngine = getelementptr inbounds %"class.cvc5::internal::theory::Theory", ptr %this1, i32 0, i32 7
  %0 = load ptr, ptr %d_equalityEngine, align 8
  call void @_ZN4cvc58internal12NodeTemplateILb0EEC2ERKS2_(ptr noundef nonnull align 8 dereferenceable(8) %agg.tmp, ptr noundef nonnull align 8 dereferenceable(8) %a)
  invoke void @_ZN4cvc58internal12NodeTemplateILb0EEC2ERKS2_(ptr noundef nonnull align 8 dereferenceable(8) %agg.tmp2, ptr noundef nonnull align 8 dereferenceable(8) %b)
          to label %invoke.cont unwind label %lpad

invoke.cont:                                      ; preds = %entry
  %call = invoke noundef zeroext i1 @_ZNK4cvc58internal6theory2eq14EqualityEngine8areEqualENS0_12NodeTemplateILb0EEES5_(ptr noundef nonnull align 8 dereferenceable(1784) %0, ptr noundef %agg.tmp, ptr noundef %agg.tmp2)
          to label %invoke.cont4 unwind label %lpad3

invoke.cont4:                                     ; preds = %invoke.cont
  call void @_ZN4cvc58internal12NodeTemplateILb0EED2Ev(ptr noundef nonnull align 8 dereferenceable(8) %agg.tmp2) #3
  call void @_ZN4cvc58internal12NodeTemplateILb0EED2Ev(ptr noundef nonnull align 8 dereferenceable(8) %agg.tmp) #3
  br i1 %call, label %if.then, label %if.end

if.then:                                          ; preds = %invoke.cont4
  store i32 2, ptr %retval, align 4
  br label %return

lpad:                                             ; preds = %entry
  %1 = landingpad { ptr, i32 }
          cleanup
  %2 = extractvalue { ptr, i32 } %1, 0
  store ptr %2, ptr %exn.slot, align 8
  %3 = extractvalue { ptr, i32 } %1, 1
  store i32 %3, ptr %ehselector.slot, align 4
  br label %ehcleanup

lpad3:                                            ; preds = %invoke.cont
  %4 = landingpad { ptr, i32 }
          cleanup
  %5 = extractvalue { ptr, i32 } %4, 0
  store ptr %5, ptr %exn.slot, align 8
  %6 = extractvalue { ptr, i32 } %4, 1
  store i32 %6, ptr %ehselector.slot, align 4
  call void @_ZN4cvc58internal12NodeTemplateILb0EED2Ev(ptr noundef nonnull align 8 dereferenceable(8) %agg.tmp2) #3
  br label %ehcleanup

ehcleanup:                                        ; preds = %lpad3, %lpad
  call void @_ZN4cvc58internal12NodeTemplateILb0EED2Ev(ptr noundef nonnull align 8 dereferenceable(8) %agg.tmp) #3
  br label %eh.resume

if.end:                                           ; preds = %invoke.cont4
  %d_equalityEngine5 = getelementptr inbounds %"class.cvc5::internal::theory::Theory", ptr %this1, i32 0, i32 7
  %7 = load ptr, ptr %d_equalityEngine5, align 8
  call void @_ZN4cvc58internal12NodeTemplateILb0EEC2ERKS2_(ptr noundef nonnull align 8 dereferenceable(8) %agg.tmp6, ptr noundef nonnull align 8 dereferenceable(8) %a)
  invoke void @_ZN4cvc58internal12NodeTemplateILb0EEC2ERKS2_(ptr noundef nonnull align 8 dereferenceable(8) %agg.tmp7, ptr noundef nonnull align 8 dereferenceable(8) %b)
          to label %invoke.cont9 unwind label %lpad8

invoke.cont9:                                     ; preds = %if.end
  %call12 = invoke noundef zeroext i1 @_ZNK4cvc58internal6theory2eq14EqualityEngine11areDisequalENS0_12NodeTemplateILb0EEES5_b(ptr noundef nonnull align 8 dereferenceable(1784) %7, ptr noundef %agg.tmp6, ptr noundef %agg.tmp7, i1 noundef zeroext false)
          to label %invoke.cont11 unwind label %lpad10

invoke.cont11:                                    ; preds = %invoke.cont9
  call void @_ZN4cvc58internal12NodeTemplateILb0EED2Ev(ptr noundef nonnull align 8 dereferenceable(8) %agg.tmp7) #3
  call void @_ZN4cvc58internal12NodeTemplateILb0EED2Ev(ptr noundef nonnull align 8 dereferenceable(8) %agg.tmp6) #3
  br i1 %call12, label %if.then15, label %if.end16

if.then15:                                        ; preds = %invoke.cont11
  store i32 3, ptr %retval, align 4
  br label %return

lpad8:                                            ; preds = %if.end
  %8 = landingpad { ptr, i32 }
          cleanup
  %9 = extractvalue { ptr, i32 } %8, 0
  store ptr %9, ptr %exn.slot, align 8
  %10 = extractvalue { ptr, i32 } %8, 1
  store i32 %10, ptr %ehselector.slot, align 4
  br label %ehcleanup14

lpad10:                                           ; preds = %invoke.cont9
  %11 = landingpad { ptr, i32 }
          cleanup
  %12 = extractvalue { ptr, i32 } %11, 0
  store ptr %12, ptr %exn.slot, align 8
  %13 = extractvalue { ptr, i32 } %11, 1
  store i32 %13, ptr %ehselector.slot, align 4
  call void @_ZN4cvc58internal12NodeTemplateILb0EED2Ev(ptr noundef nonnull align 8 dereferenceable(8) %agg.tmp7) #3
  br label %ehcleanup14

ehcleanup14:                                      ; preds = %lpad10, %lpad8
  call void @_ZN4cvc58internal12NodeTemplateILb0EED2Ev(ptr noundef nonnull align 8 dereferenceable(8) %agg.tmp6) #3
  br label %eh.resume

if.end16:                                         ; preds = %invoke.cont11
  store i32 5, ptr %retval, align 4
  br label %return

return:                                           ; preds = %if.end16, %if.then15, %if.then
  %14 = load i32, ptr %retval, align 4
  ret i32 %14

eh.resume:                                        ; preds = %ehcleanup14, %ehcleanup
  %exn = load ptr, ptr %exn.slot, align 8
  %sel = load i32, ptr %ehselector.slot, align 4
  %lpad.val = insertvalue { ptr, i32 } poison, ptr %exn, 0
  %lpad.val17 = insertvalue { ptr, i32 } %lpad.val, i32 %sel, 1
  resume { ptr, i32 } %lpad.val17
}