; Function Attrs: mustprogress uwtable
define hidden noundef i32 @_ZN4cvc58internal6theory2uf8TheoryUF17getEqualityStatusENS0_12NodeTemplateILb0EEES5_(ptr nocapture noundef nonnull readonly align 8 dereferenceable(1736) %this, ptr nocapture noundef readonly %a, ptr nocapture noundef readonly %b) unnamed_addr #3 align 2 personality ptr @__gxx_personality_v0 {
entry:
  %agg.tmp = alloca %"class.cvc5::internal::NodeTemplate.665", align 8
  %agg.tmp2 = alloca %"class.cvc5::internal::NodeTemplate.665", align 8
  %agg.tmp6 = alloca %"class.cvc5::internal::NodeTemplate.665", align 8
  %agg.tmp7 = alloca %"class.cvc5::internal::NodeTemplate.665", align 8
  %d_equalityEngine = getelementptr inbounds i8, ptr %this, i64 160
  %0 = load ptr, ptr %d_equalityEngine, align 8
  %1 = load ptr, ptr %a, align 8
  store ptr %1, ptr %agg.tmp, align 8
  %2 = load ptr, ptr %b, align 8
  store ptr %2, ptr %agg.tmp2, align 8
  %call = call noundef zeroext i1 @_ZNK4cvc58internal6theory2eq14EqualityEngine8areEqualENS0_12NodeTemplateILb0EEES5_(ptr noundef nonnull align 8 dereferenceable(1784) %0, ptr noundef nonnull %agg.tmp, ptr noundef nonnull %agg.tmp2)
  br i1 %call, label %return, label %if.end

if.end:                                           ; preds = %entry
  %3 = load ptr, ptr %d_equalityEngine, align 8
  %4 = load ptr, ptr %a, align 8
  store ptr %4, ptr %agg.tmp6, align 8
  %5 = load ptr, ptr %b, align 8
  store ptr %5, ptr %agg.tmp7, align 8
  %call12 = call noundef zeroext i1 @_ZNK4cvc58internal6theory2eq14EqualityEngine11areDisequalENS0_12NodeTemplateILb0EEES5_b(ptr noundef nonnull align 8 dereferenceable(1784) %3, ptr noundef nonnull %agg.tmp6, ptr noundef nonnull %agg.tmp7, i1 noundef zeroext false)
  %. = select i1 %call12, i32 3, i32 5
  br label %return

return:                                           ; preds = %if.end, %entry
  %retval.0 = phi i32 [ 2, %entry ], [ %., %if.end ]
  ret i32 %retval.0
}